; Function Attrs: nounwind uwtable
define ptr @X509_gmtime_adj(ptr noundef %0, i64 noundef %1) local_unnamed_addr #0 {
  %3 = alloca i64, align 8
  call void @llvm.lifetime.start.p0(i64 8, ptr nonnull %3) #10
  %4 = call i64 @time(ptr noundef nonnull %3) #10
  %.not18.i.i = icmp eq ptr %0, null
  br i1 %.not18.i.i, label %19, label %5

5:                                                ; preds = %2
  %6 = getelementptr inbounds nuw i8, ptr %0, i64 16
  %7 = load i64, ptr %6, align 8, !tbaa !102
  %8 = and i64 %7, 64
  %9 = icmp eq i64 %8, 0
  br i1 %9, label %10, label %19

10:                                               ; preds = %5
  %11 = getelementptr inbounds nuw i8, ptr %0, i64 4
  %12 = load i32, ptr %11, align 4, !tbaa !97
  switch i32 %12, label %19 [
    i32 23, label %13
    i32 24, label %16
  ]

13:                                               ; preds = %10
  %14 = load i64, ptr %3, align 8, !tbaa !101
  %15 = call ptr @ASN1_UTCTIME_adj(ptr noundef nonnull %0, i64 noundef %14, i32 noundef 0, i64 noundef %1) #10
  br label %X509_time_adj.exit

16:                                               ; preds = %10
  %17 = load i64, ptr %3, align 8, !tbaa !101
  %18 = call ptr @ASN1_GENERALIZEDTIME_adj(ptr noundef nonnull %0, i64 noundef %17, i32 noundef 0, i64 noundef %1) #10
  br label %X509_time_adj.exit

19:                                               ; preds = %10, %5, %2
  %20 = load i64, ptr %3, align 8, !tbaa !101
  %21 = call ptr @ASN1_TIME_adj(ptr noundef %0, i64 noundef %20, i32 noundef 0, i64 noundef %1) #10
  br label %X509_time_adj.exit

X509_time_adj.exit:                               ; preds = %13, %16, %19
  %.0.i.i = phi ptr [ %15, %13 ], [ %18, %16 ], [ %21, %19 ]
  call void @llvm.lifetime.end.p0(i64 8, ptr nonnull %3) #10
  ret ptr %.0.i.i
}